(dp0
(cnumpy.core.multiarray
scalar
p1
(cnumpy
dtype
p2
(S'f8'
p3
I0
I1
tp4
Rp5
(I3
S'<'
p6
NNNI-1
I-1
I0
tp7
bS'\x9a\x99\x99\x99\x99\x99\xa9?'
p8
tp9
Rp10
g1
(g5
S'\xce\xcc\xcc\xcc\xcc\xcc\xe4?'
p11
tp12
Rp13
tp14
(dp15
S'uninform-not-p'
p16
F1.338719077270799e-06
sS'not-p'
p17
F6.5466802064952796e-06
sS'null'
p18
F4.791135268643603e-17
sS'uninform-p'
p19
F0.06630576283892312
sS'p'
p20
F0.9336863517617932
ss(g1
(g5
S'\x00\x00\x00\x00\x00\x00\xe0?'
p21
tp22
Rp23
g1
(g5
S'333333\xd3?'
p24
tp25
Rp26
tp27
(dp28
g16
F2.877398364464343e-06
sg17
F6.144598813168366e-06
sg18
F0.002676837883001832
sg19
F0.04773764373331598
sg20
F0.9495764963865045
ss(g1
(g5
S'\x9a\x99\x99\x99\x99\x99\xe1?'
p29
tp30
Rp31
g1
(g5
S'433333\xe3?'
p32
tp33
Rp34
tp35
(dp36
g16
F2.987573271890655e-06
sg17
F6.069845496325618e-06
sg18
F0.014553694354823643
sg19
F0.05200762439855792
sg20
F0.9334296238278501
ss(g1
(g5
S'\x00\x00\x00\x00\x00\x00\xd0?'
p37
tp38
Rp39
g1
(g5
S'\xcd\xcc\xcc\xcc\xcc\xcc\xdc?'
p40
tp41
Rp42
tp43
(dp44
g16
F1.997041772676339e-06
sg17
F6.322414693077539e-06
sg18
F5.193799082230192e-06
sg19
F0.04600149014848159
sg20
F0.9539849965959704
ss(g1
(g5
S'333333\xd3?'
p45
tp46
Rp47
g1
(g5
S'gfffff\xee?'
p48
tp49
Rp50
tp51
(dp52
g16
F2.210926096268083e-06
sg17
F6.327030144632638e-06
sg18
F3.718746655425355e-07
sg19
F0.0453293228816152
sg20
F0.9546617672874784
ss(g1
(g5
S'\x01\x00\x00\x00\x00\x00\xe8?'
p53
tp54
Rp55
g1
(g5
S'\xce\xcc\xcc\xcc\xcc\xcc\xec?'
p56
tp57
Rp58
tp59
(dp60
g16
F3.861015485050796e-07
sg17
F7.13983349942576e-07
sg18
F0.8548720419357261
sg19
F0.03546061069125807
sg20
F0.10966624728811744
ss(g1
(g5
S'gfffff\xee?'
p61
tp62
Rp63
g1
(g5
S'\x9a\x99\x99\x99\x99\x99\xe1?'
p64
tp65
Rp66
tp67
(dp68
g16
F5.601865733826245e-07
sg17
F1.2791625215636251e-06
sg18
F0.17293899498584367
sg19
F0.6467801083959536
sg20
F0.1802790572691077
ss(g1
(g5
S'gfffff\xe6?'
p69
tp70
Rp71
g13
tp72
(dp73
g16
F2.3561641968696755e-06
sg17
F4.351372685862387e-06
sg18
F0.2376947238818013
sg19
F0.1026338079350084
sg20
F0.6596647606463077
ss(g10
g1
(g5
S'\x9a\x99\x99\x99\x99\x99\xb9?'
p74
tp75
Rp76
tp77
(dp78
g16
F1.312287183843545e-06
sg17
F6.0214476167785076e-06
sg18
F1.7139074552033566e-05
sg19
F0.06386323794323386
sg20
F0.9361122892474134
ss(g1
(g5
S'gfffff\xd6?'
p79
tp80
Rp81
g1
(g5
S'\x9a\x99\x99\x99\x99\x99\xa9?'
p82
tp83
Rp84
tp85
(dp86
g16
F2.371874276529742e-06
sg17
F6.157667701575417e-06
sg18
F0.0011559106190001253
sg19
F0.04441105734112903
sg20
F0.9544245024978928
ss(g63
g13
tp87
(dp88
g16
F4.166330980668461e-07
sg17
F9.476775513147702e-07
sg18
F0.3714515227545982
sg19
F0.48917694921256016
sg20
F0.13937016372219221
ss(g71
g34
tp89
(dp90
g16
F2.531894058016703e-06
sg17
F4.733638944199148e-06
sg18
F0.1732768734536363
sg19
F0.11105722014081806
sg20
F0.7156586408725435
ss(g1
(g5
S'\xcd\xcc\xcc\xcc\xcc\xcc\xdc?'
p91
tp92
Rp93
g1
(g5
S'gfffff\xe6?'
p94
tp95
Rp96
tp97
(dp98
g16
F2.74963411025007e-06
sg17
F6.278180027655695e-06
sg18
F0.0012795022042334204
sg19
F0.046077015613550744
sg20
F0.9526344543680778
ss(g1
(g5
S'\x9a\x99\x99\x99\x99\x99\xc9?'
p99
tp100
Rp101
g66
tp102
(dp103
g16
F1.786660377736575e-06
sg17
F6.344513350669501e-06
sg18
F1.0421354911755806e-07
sg19
F0.04768564570948222
sg20
F0.9523061189032405
ss(g39
g76
tp104
(dp105
g16
F1.9511262911762434e-06
sg17
F6.1861298609676405e-06
sg18
F0.000438125087140747
sg19
F0.045375202092108345
sg20
F0.9541785355645989
ss(g63
g1
(g5
S'433333\xeb?'
p106
tp107
Rp108
tp109
(dp110
g16
F1.1225324195957678e-07
sg17
F2.617108834151911e-07
sg18
F0.8302757705886185
sg19
F0.1314204384278262
sg20
F0.03830341701943021
ss(g1
(g5
S'\x9a\x99\x99\x99\x99\x99\xb9?'
p111
tp112
Rp113
g34
tp114
(dp115
g16
F1.453007522504468e-06
sg17
F6.468845252030777e-06
sg18
F5.064396322765834e-12
sg19
F0.054788267970879156
sg20
F0.945203810171282
ss(g63
g1
(g5
S'\x00\x00\x00\x00\x00\x00\xd0?'
p116
tp117
Rp118
tp119
(dp120
g16
F6.550883044077961e-07
sg17
F1.5482088482564026e-06
sg18
F0.009053771311350009
sg19
F0.7647811586072955
sg20
F0.22616286678420194
ss(g101
g1
(g5
S'433333\xc3?'
p121
tp122
Rp123
tp124
(dp125
g16
F1.817093687875359e-06
sg17
F6.408046889491374e-06
sg18
F0.00011777810175462962
sg19
F0.04774197651775285
sg20
F0.9521320202399151
ss(g71
g1
(g5
S'\x9a\x99\x99\x99\x99\x99\xe9?'
p126
tp127
Rp128
tp129
(dp130
g16
F1.4536041273641824e-06
sg17
F2.770317465212086e-06
sg18
F0.5167108999748057
sg19
F0.06445334622655619
sg20
F0.4188315298770456
ss(g1
(g5
S'433333\xeb?'
p131
tp132
Rp133
g34
tp134
(dp135
g16
F5.365970432486694e-07
sg17
F1.0419542846305416e-06
sg18
F0.21849790882189327
sg19
F0.6260042868222254
sg20
F0.15549622580455358
ss(g39
g26
tp136
(dp137
g16
F1.9900199525760772e-06
sg17
F6.356856396231787e-06
sg18
F3.526607102704297e-05
sg19
F0.04641629623810216
sg20
F0.9535400908145221
ss(g1
(g5
S'\x9a\x99\x99\x99\x99\x99\xe9?'
p138
tp139
Rp140
g108
tp141
(dp142
g16
F2.71473546693841e-07
sg17
F5.049546710158327e-07
sg18
F0.8521154725011594
sg19
F0.07153285470763082
sg20
F0.07635089636299196
ss(g1
(g5
S'\xce\xcc\xcc\xcc\xcc\xcc\xe4?'
p143
tp144
Rp145
g128
tp146
(dp147
g16
F2.2382164957169243e-06
sg17
F4.319527429140015e-06
sg18
F0.27875309568296697
sg19
F0.06224829636593034
sg20
F0.6589920502071778
ss(g140
g1
(g5
S'\x00\x00\x00\x00\x00\x00\xe0?'
p148
tp149
Rp150
tp151
(dp152
g16
F1.5637777152467336e-06
sg17
F2.88803473976956e-06
sg18
F0.14043488360025883
sg19
F0.4237042794652271
sg20
F0.43585638512205893
ss(g10
g84
tp153
(dp154
g16
F1.2914858539243205e-06
sg17
F6.392532382284847e-06
sg18
F0.00019543869095043715
sg19
F0.06463443332812725
sg20
F0.935162443962686
ss(g113
g128
tp155
(dp156
g16
F1.40075647876816e-06
sg17
F6.445130811013726e-06
sg18
F7.033175181606182e-15
sg19
F0.05474485748072303
sg20
F0.9452472966319799
ss(g145
g1
(g5
S'gfffff\xd6?'
p157
tp158
Rp159
tp160
(dp161
g16
F3.0991831088111688e-06
sg17
F5.824657097033196e-06
sg18
F0.01721411858349442
sg19
F0.08295860032567944
sg20
F0.8998183572506203
ss(g39
g96
tp162
(dp163
g16
F1.9425401028202278e-06
sg17
F6.239924231153909e-06
sg18
F2.1586616197565893e-07
sg19
F0.04587120109484867
sg20
F0.9541204005746554
ss(g140
g13
tp164
(dp165
g16
F1.0362223331943218e-06
sg17
F1.962247589077849e-06
sg18
F0.42690818025205696
sg19
F0.2825455367836255
sg20
F0.29054328449439537
ss(g23
g58
tp166
(dp167
g16
F2.85520344492719e-06
sg17
F6.135698092332452e-06
sg18
F0.008216245291480231
sg19
F0.048018319056525115
sg20
F0.9437564447504574
ss(g1
(g5
S'\x9a\x99\x99\x99\x99\x99\xd9?'
p168
tp169
Rp170
g123
tp171
(dp172
g16
F2.6020502046304668e-06
sg17
F6.193736141535204e-06
sg18
F0.0010211112001043837
sg19
F0.04502961510530619
sg20
F0.9539404779082433
ss(g55
g96
tp173
(dp174
g16
F1.4102365659649527e-06
sg17
F2.619108642305195e-06
sg18
F0.48137567110537266
sg19
F0.126171449812271
sg20
F0.392448849737148
ss(g1
(g5
S'433333\xc3?'
p175
tp176
Rp177
g76
tp178
(dp179
g16
F1.6209401088627192e-06
sg17
F6.347468036408738e-06
sg18
F0.00015876032700784295
sg19
F0.0503159394848754
sg20
F0.9495173317799717
ss(g81
g26
tp180
(dp181
g16
F2.3264734483404407e-06
sg17
F6.16001735152762e-06
sg18
F0.00029201960792312636
sg19
F0.044327914484003576
sg20
F0.9553715794172735
ss(g10
g34
tp182
(dp183
g16
F1.3087460933085056e-06
sg17
F6.6367016993973625e-06
sg18
F5.52212784969704e-16
sg19
F0.06782847088378668
sg20
F0.9321635836684201
ss(g101
g84
tp184
(dp185
g16
F1.7888110686390892e-06
sg17
F6.285755026912122e-06
sg18
F0.000681133831135754
sg19
F0.0476316820889969
sg20
F0.9516791095137718
ss(g133
g1
(g5
S'\x9a\x99\x99\x99\x99\x99\xd9?'
p186
tp187
Rp188
tp189
(dp190
g16
F6.78909632819385e-07
sg17
F1.3385871035258077e-06
sg18
F0.03200525730123681
sg19
F0.775681175857017
sg20
F0.1923115493450097
ss(g39
g128
tp191
(dp192
g16
F1.964491440136911e-06
sg17
F6.261770157326691e-06
sg18
F6.006771441558962e-08
sg19
F0.0454908273415493
sg20
F0.954500886329139
ss(g31
g118
tp193
(dp194
g16
F3.0390782357390153e-06
sg17
F6.174541263173781e-06
sg18
F0.003962262689918195
sg19
F0.05311418834701677
sg20
F0.942914335343566
ss(g145
g1
(g5
S'\x9a\x99\x99\x99\x99\x99\xc9?'
p195
tp196
Rp197
tp198
(dp199
g16
F3.1370696265800733e-06
sg17
F5.9164461770358175e-06
sg18
F0.0062116477587036865
sg19
F0.0873416872818205
sg20
F0.9064376114436723
ss(g23
g159
tp200
(dp201
g16
F2.9291669714494132e-06
sg17
F6.176699444694305e-06
sg18
F0.0029625509047016816
sg19
F0.04791201372721679
sg20
F0.9491163295016655
ss(g133
g159
tp202
(dp203
g16
F6.868924867716725e-07
sg17
F1.3450872815125265e-06
sg18
F0.018976553662096822
sg19
F0.7805568520688044
sg20
F0.20046456228933057
ss(g93
g66
tp204
(dp205
g16
F2.7436653681698414e-06
sg17
F6.1782803885153876e-06
sg18
F0.001320525007523998
sg19
F0.04555304402203795
sg20
F0.9531175090246815
ss(g140
g58
tp206
(dp207
g16
F1.7125442753608071e-07
sg17
F3.2510925214837446e-07
sg18
F0.903434308980932
sg19
F0.048771328421153816
sg20
F0.04779386623423455
ss(g1
(g5
S'\xce\xcc\xcc\xcc\xcc\xcc\xec?'
p208
tp209
Rp210
g58
tp211
(dp212
g16
F5.176698193351914e-08
sg17
F1.0809139208008271e-07
sg18
F0.8062547435732214
sg19
F0.17827540454812396
sg20
F0.015469692020280496
ss(g133
g1
(g5
S'\x01\x00\x00\x00\x00\x00\xe8?'
p213
tp214
Rp215
tp216
(dp217
g16
F2.8621642502765846e-07
sg17
F5.561136839640348e-07
sg18
F0.5883718560443724
sg19
F0.3278870356858649
sg20
F0.0837402659396537
ss(g101
g96
tp218
(dp219
g16
F1.8208129521490636e-06
sg17
F6.369468605379301e-06
sg18
F7.523354782004108e-09
sg19
F0.04804093733078525
sg20
F0.9519508648643026
ss(g1
(g5
S'433333\xe3?'
p220
tp221
Rp222
g13
tp223
(dp224
g16
F2.974446688407339e-06
sg17
F5.828592790019155e-06
sg18
F0.05030489204910896
sg19
F0.0598250985038864
sg20
F0.8898612064075261
ss(g177
g108
tp225
(dp226
g16
F1.6398211078868104e-06
sg17
F6.319838400972212e-06
sg18
F2.619789362921356e-12
sg19
F0.05052662291830747
sg20
F0.9494654174195638
ss(g31
g76
tp227
(dp228
g16
F3.0392445315966554e-06
sg17
F6.213011217159786e-06
sg18
F0.002257396882558288
sg19
F0.05236324651545575
sg20
F0.9453701043462372
ss(g140
g50
tp229
(dp230
g16
F1.0791005045510141e-07
sg17
F2.0427346730008002e-07
sg18
F0.9413290341104629
sg19
F0.029042017992354934
sg20
F0.029628635713664427
ss(g170
g128
tp231
(dp232
g16
F2.5247511162931925e-06
sg17
F6.1788325306729805e-06
sg18
F0.00017504508054431482
sg19
F0.04431734174030851
sg20
F0.9554989095955003
ss(g140
g118
tp233
(dp234
g16
F1.7759609192172826e-06
sg17
F3.3082720198616116e-06
sg18
F0.012679396662577575
sg19
F0.49389080176808725
sg20
F0.493424717336396
ss(g71
g84
tp235
(dp236
g16
F3.073806915736782e-06
sg17
F5.670678685131782e-06
sg18
F0.002316259780843898
sg19
F0.13692978111139262
sg20
F0.8607452146221627
ss(g177
g50
tp237
(dp238
g16
F1.5652512177652068e-06
sg17
F6.419124117722769e-06
sg18
F2.3730930444244277e-13
sg19
F0.04994327070467274
sg20
F0.9500487449197544
ss(g39
g50
tp239
(dp240
g16
F1.976512184812118e-06
sg17
F6.191771707646367e-06
sg18
F8.891680597370421e-09
sg19
F0.04532309533762235
sg20
F0.9546687274868045
ss(g133
g96
tp241
(dp242
g16
F3.772457481132136e-07
sg17
F7.344486785531951e-07
sg18
F0.4559825439774337
sg19
F0.43433363836244804
sg20
F0.10968270596569163
ss(g55
g123
tp243
(dp244
g16
F2.6185693444132085e-06
sg17
F4.914668885277414e-06
sg18
F0.00561282436428304
sg19
F0.24441233696646822
sg20
F0.749967305431019
ss(g133
g197
tp245
(dp246
g16
F6.831585093351696e-07
sg17
F1.3690318983528007e-06
sg18
F0.0037779599705647766
sg19
F0.7954452335534695
sg20
F0.20077475428555797
ss(g10
g123
tp247
(dp248
g16
F1.3592529344290213e-06
sg17
F6.505598073910489e-06
sg18
F1.5901570267210298e-06
sg19
F0.06675945524640291
sg20
F0.933231089745562
ss(g113
g197
tp249
(dp250
g16
F1.4544371374036766e-06
sg17
F6.6554219525857706e-06
sg18
F2.64895678036682e-06
sg19
F0.055355390321962995
sg20
F0.9446338508621667
ss(g222
g197
tp251
(dp252
g16
F3.097328147846081e-06
sg17
F6.015801720576557e-06
sg18
F0.00459828920829006
sg19
F0.0626805121886497
sg20
F0.9327120854731918
ss(g31
g188
tp253
(dp254
g16
F3.000906248574683e-06
sg17
F6.144405934954788e-06
sg18
F0.006916490190036985
sg19
F0.05209966305271866
sg20
F0.9409747014450607
ss(g93
g42
tp255
(dp256
g16
F2.7085622932761413e-06
sg17
F6.157804605013252e-06
sg18
F0.0013445833137365976
sg19
F0.04526253616936111
sg20
F0.953384014150004
ss(g177
g34
tp257
(dp258
g16
F1.5903931155190603e-06
sg17
F6.409753900308024e-06
sg18
F1.0215833705725043e-09
sg19
F0.0500926711698569
sg20
F0.9498993276615441
ss(g222
g108
tp259
(dp260
g16
F2.6838164312761586e-06
sg17
F5.151259608093544e-06
sg18
F0.13368621302955938
sg19
F0.05448953104730583
sg20
F0.8118164208470955
ss(g101
g50
tp261
(dp262
g16
F1.8105684023367685e-06
sg17
F6.3127379286765134e-06
sg18
F9.072534828357898e-11
sg19
F0.04686316747995968
sg20
F0.953128709122984
ss(g31
g26
tp263
(dp264
g16
F3.0094057251797445e-06
sg17
F6.150414113698354e-06
sg18
F0.004733848567327002
sg19
F0.05305522269593438
sg20
F0.9422017689168998
ss(g23
g197
tp265
(dp266
g16
F2.968467895366486e-06
sg17
F6.161242181624795e-06
sg18
F0.002232247293261794
sg19
F0.04794975196054559
sg20
F0.9498088710361156
ss(g222
g150
tp267
(dp268
g16
F3.0526021909250166e-06
sg17
F5.982173706485489e-06
sg18
F0.022977181603164965
sg19
F0.061952213790766056
sg20
F0.9150615698301717
ss(g170
g159
tp269
(dp270
g16
F2.5797781800440045e-06
sg17
F6.247169866417475e-06
sg18
F0.000594280540532011
sg19
F0.044884208726235206
sg20
F0.9545126837851863
ss(g210
g215
tp271
(dp272
g16
F1.496326006492767e-07
sg17
F3.0565609196239974e-07
sg18
F0.4436049278915474
sg19
F0.5103956228595639
sg20
F0.04599899396019623
ss(g39
g13
tp273
(dp274
g16
F1.9910005253681296e-06
sg17
F6.274732393596407e-06
sg18
F4.0705748905482097e-07
sg19
F0.045810356203990314
sg20
F0.9541809710056016
ss(g55
g150
tp275
(dp276
g16
F2.3352855092497787e-06
sg17
F4.349278608025064e-06
sg18
F0.12695728132840026
sg19
F0.21567817933999964
sg20
F0.6573578547674828
ss(g39
g150
tp277
(dp278
g16
F2.001088547144621e-06
sg17
F6.355392583206095e-06
sg18
F2.7611181755070645e-06
sg19
F0.046171492138070105
sg20
F0.9538173902626241
ss(g81
g50
tp279
(dp280
g16
F2.4286398161894486e-06
sg17
F6.3085545340345146e-06
sg18
F8.389572985521626e-06
sg19
F0.04532540811283172
sg20
F0.9546574651198325
ss(g222
g26
tp281
(dp282
g16
F3.0869106867592304e-06
sg17
F6.027029372591646e-06
sg18
F0.007874562574049674
sg19
F0.06207073605484524
sg20
F0.9300455874310456
ss(g47
g58
tp283
(dp284
g16
F2.212118212114305e-06
sg17
F6.282371585504113e-06
sg18
F5.760223317644478e-07
sg19
F0.04525318966133701
sg20
F0.9547377398265336
ss(g133
g76
tp285
(dp286
g16
F7.055689539654936e-07
sg17
F1.36347751674934e-06
sg18
F0.0012789766664627244
sg19
F0.7985421459066881
sg20
F0.2001768083803784
ss(g23
g84
tp287
(dp288
g16
F2.853194624267102e-06
sg17
F6.1070238827726645e-06
sg18
F0.0016699656585464082
sg19
F0.04787398240719698
sg20
F0.9504470917157498
ss(g210
g26
tp289
(dp290
g16
F2.809008995362471e-07
sg17
F5.891195495144725e-07
sg18
F0.005834766129806666
sg19
F0.908100100081765
sg20
F0.0860642637679793
ss(g10
g42
tp291
(dp292
g16
F1.3072055495075596e-06
sg17
F6.488110814918968e-06
sg18
F7.626339053149436e-13
sg19
F0.06549434337760336
sg20
F0.9344978613052696
ss(g177
g13
tp293
(dp294
g16
F1.625528464188879e-06
sg17
F6.387739040266499e-06
sg18
F3.1297928889949713e-10
sg19
F0.05069236287798005
sg20
F0.9492996235415362
ss(g23
g34
tp295
(dp296
g16
F2.857965107337272e-06
sg17
F6.172079183306472e-06
sg18
F0.004701163451555469
sg19
F0.04834393339519721
sg20
F0.9469458731089565
ss(g31
g108
tp297
(dp298
g16
F2.923217985149581e-06
sg17
F5.950607378288672e-06
sg18
F0.036633238228577614
sg19
F0.05182501329491439
sg20
F0.9115328746511446
ss(g31
g42
tp299
(dp300
g16
F2.984097369716666e-06
sg17
F6.046662764781414e-06
sg18
F0.008225692784992503
sg19
F0.051844192496447325
sg20
F0.9399210839584257
ss(g39
g58
tp301
(dp302
g16
F1.967935186958642e-06
sg17
F6.29856713000415e-06
sg18
F1.6967600049530485e-08
sg19
F0.04580964887975872
sg20
F0.9541820676503242
ss(g145
g26
tp303
(dp304
g16
F3.1106073466620995e-06
sg17
F5.929196709710627e-06
sg18
F0.012271352388797244
sg19
F0.08429040247595636
sg20
F0.90342920533119
ss(g133
g150
tp305
(dp306
g16
F6.344494244981291e-07
sg17
F1.232793753001244e-06
sg18
F0.08820279928435537
sg19
F0.7280249212608549
sg20
F0.18377041221161222
ss(g93
g159
tp307
(dp308
g16
F2.7377100100066146e-06
sg17
F6.21475952889043e-06
sg18
F0.0013889276320538562
sg19
F0.045644003196779075
sg20
F0.9529581167016282
ss(g133
g26
tp309
(dp310
g16
F6.737213620384805e-07
sg17
F1.3228241500265598e-06
sg18
F0.010921376114472997
sg19
F0.7943243948872506
sg20
F0.19475223245276438
ss(g170
g84
tp311
(dp312
g16
F2.578271613615643e-06
sg17
F6.184115538422157e-06
sg18
F0.0013260665415136303
sg19
F0.04464376551855447
sg20
F0.9540214055527798
ss(g63
g42
tp313
(dp314
g16
F6.265607254470474e-07
sg17
F1.5025535658843774e-06
sg18
F0.07086747561027221
sg19
F0.720086850302873
sg20
F0.20904354497256353
ss(g23
g188
tp315
(dp316
g16
F2.926263765729617e-06
sg17
F6.213368269872088e-06
sg18
F0.0032588677154124094
sg19
F0.04815557734341733
sg20
F0.9485764153091347
ss(g170
g118
tp317
(dp318
g16
F2.5311411794676653e-06
sg17
F6.251063394001644e-06
sg18
F0.000775056721166442
sg19
F0.04462855557760199
sg20
F0.954587605496658
ss(g113
g159
tp319
(dp320
g16
F1.3938940686069306e-06
sg17
F6.289703696083286e-06
sg18
F1.8811322953063697e-08
sg19
F0.054613969299312955
sg20
F0.9453783282915994
ss(g140
g34
tp321
(dp322
g16
F1.2397174877950198e-06
sg17
F2.3556705838102928e-06
sg18
F0.31269797923048104
sg19
F0.33583288907531494
sg20
F0.3514655363061324
ss(g39
g84
tp323
(dp324
g16
F2.00452958422391e-06
sg17
F6.199864233311641e-06
sg18
F0.0008427034398770293
sg19
F0.04622438163375772
sg20
F0.9529247105325475
ss(g81
g118
tp325
(dp326
g16
F2.3998347145318467e-06
sg17
F6.334244135768328e-06
sg18
F0.0003873828237777121
sg19
F0.044646504254546734
sg20
F0.9549573788428252
ss(g63
g26
tp327
(dp328
g16
F6.868923371419043e-07
sg17
F1.5081149129345265e-06
sg18
F0.015725204126215066
sg19
F0.7543955487820955
sg20
F0.22987705208443937
ss(g93
g188
tp329
(dp330
g16
F2.745023048135922e-06
sg17
F6.176919558216749e-06
sg18
F0.0013668135857918498
sg19
F0.04550629896857212
sg20
F0.9531179655030296
ss(g113
g96
tp331
(dp332
g16
F1.4601747074926783e-06
sg17
F6.445046609342734e-06
sg18
F1.8945909323296914e-13
sg19
F0.05498185707591032
sg20
F0.9450102377025832
ss(g133
g128
tp333
(dp334
g16
F2.001278313861385e-07
sg17
F3.801277205535214e-07
sg18
F0.7090747067120691
sg19
F0.23271484400679765
sg20
F0.05820986902558127
ss(g47
g188
tp335
(dp336
g16
F2.1858629766012274e-06
sg17
F6.323162384342168e-06
sg18
F4.653988159509359e-05
sg19
F0.04535630068911606
sg20
F0.9545886504039279
ss(g113
g66
tp337
(dp338
g16
F1.4502601074327334e-06
sg17
F6.420536690593152e-06
sg18
F2.615743708123643e-11
sg19
F0.05463807657669921
sg20
F0.9453540526003454
ss(g10
g26
tp339
(dp340
g16
F1.34478648131766e-06
sg17
F6.674659046861831e-06
sg18
F1.1130144765137087e-09
sg19
F0.06683330295496423
sg20
F0.9331586764864932
ss(g145
g215
tp341
(dp342
g16
F2.4326260732821884e-06
sg17
F4.646818704349517e-06
sg18
F0.21393968018063422
sg19
F0.06659189453876434
sg20
F0.719461345835824
ss(g93
g197
tp343
(dp344
g16
F2.7317593084211202e-06
sg17
F6.2396513140875205e-06
sg18
F0.0014428046600414035
sg19
F0.04563067951856412
sg20
F0.952917544410772
ss(g177
g42
tp345
(dp346
g16
F1.6113841344527558e-06
sg17
F6.286650364472534e-06
sg18
F3.683845216388534e-08
sg19
F0.05011288090599286
sg20
F0.9498791842210561
ss(g23
g128
tp347
(dp348
g16
F2.835274852207133e-06
sg17
F6.087206218008913e-06
sg18
F0.006775599007427025
sg19
F0.04747376845854336
sg20
F0.9457417100529595
ss(g39
g108
tp349
(dp350
g16
F2.021545246439262e-06
sg17
F6.2724239566309484e-06
sg18
F3.2447264951178954e-08
sg19
F0.04639860714094914
sg20
F0.9535930664425829
ss(g55
g84
tp351
(dp352
g16
F2.736005412704719e-06
sg17
F4.958712668358022e-06
sg18
F0.0022541259418326935
sg19
F0.2503599114638338
sg20
F0.7473782678762525
ss(g23
g118
tp353
(dp354
g16
F2.885280053511682e-06
sg17
F6.128198272058604e-06
sg18
F0.002445451111101697
sg19
F0.047897948529496845
sg20
F0.9496475868810761
ss(g170
g13
tp355
(dp356
g16
F2.5872689593393645e-06
sg17
F6.248465966524375e-06
sg18
F0.00026567521818304237
sg19
F0.04495548854026336
sg20
F0.9547700005066279
ss(g93
g13
tp357
(dp358
g16
F2.7465597518959892e-06
sg17
F6.241016202520245e-06
sg18
F0.00129214416013699
sg19
F0.04591384843326212
sg20
F0.9527850198306466
ss(g31
g123
tp359
(dp360
g16
F2.960944184202644e-06
sg17
F6.069729257189688e-06
sg18
F0.0026820837307852743
sg19
F0.052023066176876964
sg20
F0.9452858194188964
ss(g113
g118
tp361
(dp362
g16
F1.4112285243813159e-06
sg17
F6.340120082698978e-06
sg18
F5.051405296042307e-07
sg19
F0.05467155478802037
sg20
F0.945320188722843
ss(g101
g34
tp363
(dp364
g16
F1.8080256920993505e-06
sg17
F6.343346878791612e-06
sg18
F4.329178017786884e-08
sg19
F0.04769280325905131
sg20
F0.9522990020765976
ss(g140
g159
tp365
(dp366
g16
F1.7170668422397913e-06
sg17
F3.1497762990803174e-06
sg18
F0.033829925134679056
sg19
F0.48158624378085146
sg20
F0.4845789642413282
ss(g39
g118
tp367
(dp368
g16
F1.9407448733332625e-06
sg17
F6.332323073555652e-06
sg18
F6.547458520561682e-05
sg19
F0.04564221422048391
sg20
F0.9542840381263638
ss(g63
g123
tp369
(dp370
g16
F6.753493929417024e-07
sg17
F1.5410785025916653e-06
sg18
F0.0033011174433228707
sg19
F0.769108757343951
sg20
F0.22758790878483054
ss(g23
g96
tp371
(dp372
g16
F2.8653017556209514e-06
sg17
F6.202723165721455e-06
sg18
F0.005664954695908461
sg19
F0.04822613779973987
sg20
F0.9460998394794304
ss(g145
g108
tp373
(dp374
g16
F2.030713768669901e-06
sg17
F3.867699929521538e-06
sg18
F0.35258806096266887
sg19
F0.05479555768206009
sg20
F0.5926104829415727
ss(g222
g128
tp375
(dp376
g16
F2.7995108985684544e-06
sg17
F5.438989356503039e-06
sg18
F0.10636125657412243
sg19
F0.05740768204266912
sg20
F0.8362228228829531
ss(g10
g118
tp377
(dp378
g16
F1.2666151915642536e-06
sg17
F6.441721802074179e-06
sg18
F1.2196261243045028e-08
sg19
F0.06499832686210022
sg20
F0.934993952604645
ss(g133
g42
tp379
(dp380
g16
F6.705194550951357e-07
sg17
F1.2757789899408281e-06
sg18
F0.053607824698717034
sg19
F0.7545631498401792
sg20
F0.19182707916265873
ss(g10
g50
tp381
(dp382
g16
F1.337969300823811e-06
sg17
F6.3329733751047516e-06
sg18
F2.3169748895388123e-23
sg19
F0.06559514690604923
sg20
F0.9343971821512749
ss(g63
g197
tp383
(dp384
g16
F7.172130458033032e-07
sg17
F1.5915514201052094e-06
sg18
F0.005633363401042064
sg19
F0.765851616315691
sg20
F0.22851271151880106
ss(g71
g66
tp385
(dp386
g16
F2.6973669732423752e-06
sg17
F5.056410831678062e-06
sg18
F0.12229429798545326
sg19
F0.11598064690939293
sg20
F0.7617173013273489
ss(g177
g118
tp387
(dp388
g16
F1.5785193793830225e-06
sg17
F6.3722650424224365e-06
sg18
F4.357353303623453e-06
sg19
F0.04978044207353124
sg20
F0.9502072497887435
ss(g177
g128
tp389
(dp390
g16
F1.5854471483630597e-06
sg17
F6.303847229053988e-06
sg18
F8.435717723902439e-12
sg19
F0.04925199771134061
sg20
F0.9507401129858462
ss(g210
g159
tp391
(dp392
g16
F2.747450111567461e-07
sg17
F5.826442086815489e-07
sg18
F0.0097876281904362
sg19
F0.90662419503574
sg20
F0.08358731938460413
ss(g93
g34
tp393
(dp394
g16
F2.7700863749012916e-06
sg17
F6.2956732339494955e-06
sg18
F0.0013095435590274338
sg19
F0.04601602126444085
sg20
F0.9526653694169228
ss(g113
g123
tp395
(dp396
g16
F1.399069222564697e-06
sg17
F6.448807505552278e-06
sg18
F1.3404583602715742e-05
sg19
F0.054086032425412135
sg20
F0.945892715114257
ss(g210
g128
tp397
(dp398
g16
F1.130103007373075e-07
sg17
F2.3819337584854633e-07
sg18
F0.5831064239133922
sg19
F0.3816384896543712
sg20
F0.03525473522856025
ss(g93
g76
tp399
(dp400
g16
F2.7274295097561443e-06
sg17
F6.185167303247566e-06
sg18
F0.001484052871796682
sg19
F0.04574342664286446
sg20
F0.9527636078885257
ss(g222
g188
tp401
(dp402
g16
F3.0352167970994523e-06
sg17
F5.997770880792288e-06
sg18
F0.013383440781420715
sg19
F0.061927536440581944
sg20
F0.9246799897903193
ss(g93
g123
tp403
(dp404
g16
F2.7615550989865366e-06
sg17
F6.295939934677278e-06
sg18
F0.0014776810149126894
sg19
F0.04602995099776956
sg20
F0.9524833104922841
ss(g71
g123
tp405
(dp406
g16
F3.0511440914940924e-06
sg17
F5.7719156902201e-06
sg18
F0.005329934499538543
sg19
F0.1332260484777248
sg20
F0.8614351939629549
ss(g140
g123
tp407
(dp408
g16
F1.7653262351547538e-06
sg17
F3.3706743168525295e-06
sg18
F0.004599116236872919
sg19
F0.4955186430545007
sg20
F0.49987710470807434
ss(g63
g150
tp409
(dp410
g16
F6.170164443568616e-07
sg17
F1.4138160231612676e-06
sg18
F0.1138381499166855
sg19
F0.6825707296355973
sg20
F0.20358908961524969
ss(g31
g84
tp411
(dp412
g16
F3.0072527230036525e-06
sg17
F6.095607556956853e-06
sg18
F0.001860309117339314
sg19
F0.0525023718652665
sg20
F0.9456282161571142
ss(g177
g159
tp413
(dp414
g16
F1.6136539786745148e-06
sg17
F6.344819235289982e-06
sg18
F4.018591982970487e-07
sg19
F0.050095924417632165
sg20
F0.9498957152499555
ss(g55
g66
tp415
(dp416
g16
F2.1654455280481136e-06
sg17
F3.946570233775644e-06
sg18
F0.18572789266562986
sg19
F0.2035976598129959
sg20
F0.6106683355056124
ss(g63
g84
tp417
(dp418
g16
F6.723244827153473e-07
sg17
F1.5576664911845514e-06
sg18
F0.0011274231605942452
sg19
F0.7772302417152834
sg20
F0.22164010513314852
ss(g47
g215
tp419
(dp420
g16
F2.131354034175107e-06
sg17
F6.278019158482999e-06
sg18
F2.1374347124063994e-06
sg19
F0.045008516031508336
sg20
F0.9549809371605866
ss(g113
g215
tp421
(dp422
g16
F1.4237683812069778e-06
sg17
F6.3666794909263655e-06
sg18
F3.639138667447285e-14
sg19
F0.0546938296702603
sg20
F0.9452983798818311
ss(g55
g128
tp423
(dp424
g16
F7.922635493378455e-07
sg17
F1.4938088393857468e-06
sg18
F0.6977731693678755
sg19
F0.07627790351292857
sg20
F0.22594664104680723
ss(g71
g150
tp425
(dp426
g16
F2.824020636993261e-06
sg17
F5.14529209364468e-06
sg18
F0.0845181538096493
sg19
F0.12578764591245428
sg20
F0.7896862309651658
ss(g10
g159
tp427
(dp428
g16
F1.3421519309793333e-06
sg17
F6.342616582607403e-06
sg18
F9.807067921245255e-11
sg19
F0.06634843808083826
sg20
F0.9336438770525776
ss(g140
g42
tp429
(dp430
g16
F1.6326817236582252e-06
sg17
F3.0888503214504257e-06
sg18
F0.0885894349245365
sg19
F0.44572272050481904
sg20
F0.46568312303859943
ss(g81
g58
tp431
(dp432
g16
F2.347227595024423e-06
sg17
F6.234489498646257e-06
sg18
F1.0908495764634269e-05
sg19
F0.044771238298355186
sg20
F0.9552092714887864
ss(g210
g50
tp433
(dp434
g16
F3.209244405014643e-08
sg17
F6.617247386202886e-08
sg18
F0.8759730973998103
sg19
F0.11429540186549754
sg20
F0.009731402469774261
ss(g31
g50
tp435
(dp436
g16
F2.8184105981282337e-06
sg17
F5.84788910318837e-06
sg18
F0.05220133844782623
sg19
F0.05025755234157596
sg20
F0.8975324429108966
ss(g222
g50
tp437
(dp438
g16
F2.459707900402448e-06
sg17
F4.909835944972024e-06
sg18
F0.21333390413720177
sg19
F0.05027129014982816
sg20
F0.7363874361691247
ss(g177
g188
tp439
(dp440
g16
F1.5748393409925478e-06
sg17
F6.239670273630218e-06
sg18
F1.218385613357603e-07
sg19
F0.05017172596012803
sg20
F0.949820337691696
ss(g31
g96
tp441
(dp442
g16
F2.9427270894000724e-06
sg17
F5.980535405794066e-06
sg18
F0.020901775931666713
sg19
F0.052192303376924765
sg20
F0.9268969974289133
ss(g55
g34
tp443
(dp444
g16
F1.9622807767630356e-06
sg17
F3.602301388048749e-06
sg18
F0.2685215338029364
sg19
F0.18635064024479164
sg20
F0.5451222613701072
ss(g23
g76
tp445
(dp446
g16
F2.9385403374939494e-06
sg17
F6.160436657384872e-06
sg18
F0.0018425989928647414
sg19
F0.0479159222857956
sg20
F0.9502323797443448
ss(g47
g197
tp447
(dp448
g16
F2.2024317012487227e-06
sg17
F6.255801189515441e-06
sg18
F0.00026730644782212436
sg19
F0.045010174169395345
sg20
F0.9547140611498917
ss(g177
g84
tp449
(dp450
g16
F1.6233786481209523e-06
sg17
F6.357238613440935e-06
sg18
F0.0005341318433015939
sg19
F0.051244617601603405
sg20
F0.9482132699378335
ss(g170
g50
tp451
(dp452
g16
F2.560485292444095e-06
sg17
F6.178218390051512e-06
sg18
F0.00011777390903693742
sg19
F0.04459432146617033
sg20
F0.9552791659211103
ss(g140
g26
tp453
(dp454
g16
F1.7428708245188364e-06
sg17
F3.2113338066952477e-06
sg18
F0.02050212744101394
sg19
F0.4840235229041635
sg20
F0.49546939545019136
ss(g55
g188
tp455
(dp456
g16
F2.5509975346296245e-06
sg17
F4.734762820968302e-06
sg18
F0.05450002796204526
sg19
F0.22709080678104213
sg20
F0.718401879496557
ss(g210
g42
tp457
(dp458
g16
F2.744271117702052e-07
sg17
F5.611447942905961e-07
sg18
F0.02919695224880477
sg19
F0.8900007910747565
sg20
F0.0808014211045326
ss(g71
g76
tp459
(dp460
g16
F3.0400070215288277e-06
sg17
F5.7148884861867175e-06
sg18
F0.0035111305184554317
sg19
F0.1326615187286741
sg20
F0.8638185958573628
ss(g101
g188
tp461
(dp462
g16
F1.7741482655845245e-06
sg17
F6.414319194245793e-06
sg18
F1.4623098090760346e-06
sg19
F0.04795033528986488
sg20
F0.9520400139328663
ss(g71
g197
tp463
(dp464
g16
F3.0128235856127005e-06
sg17
F5.672876196923231e-06
sg18
F0.007866418759734192
sg19
F0.13088864534558128
sg20
F0.861236250194902
ss(g145
g34
tp465
(dp466
g16
F2.8701674241619998e-06
sg17
F5.495568958831124e-06
sg18
F0.08934147651841774
sg19
F0.07521194780336717
sg20
F0.8354382099418322
ss(g31
g215
tp467
(dp468
g16
F2.8995698966593684e-06
sg17
F5.9165422668863495e-06
sg18
F0.02476248957523361
sg19
F0.05064828204680663
sg20
F0.924580412265796
ss(g177
g197
tp469
(dp470
g16
F1.59581388584825e-06
sg17
F6.521622528913824e-06
sg18
F1.4409336631968598e-05
sg19
F0.049831006403460144
sg20
F0.9501464668234931
ss(g93
g215
tp471
(dp472
g16
F2.7871327450810056e-06
sg17
F6.302556101582225e-06
sg18
F0.001273590007734906
sg19
F0.04652418631672506
sg20
F0.9521931339866935
ss(g113
g108
tp473
(dp474
g16
F1.4330699182990334e-06
sg17
F6.509133984948058e-06
sg18
F1.3474100367966009e-15
sg19
F0.05432062318407036
sg20
F0.9456714346120249
ss(g39
g215
tp475
(dp476
g16
F1.991007090735299e-06
sg17
F6.339637200016454e-06
sg18
F1.1465875562461381e-07
sg19
F0.04599568750872576
sg20
F0.9539958671882278
ss(g47
g76
tp477
(dp478
g16
F2.1972255118791323e-06
sg17
F6.234464093344268e-06
sg18
F0.0006397492469258964
sg19
F0.044773631389795995
sg20
F0.9545781876736728
ss(g47
g42
tp479
(dp480
g16
F2.19036939815872e-06
sg17
F6.250186062816799e-06
sg18
F2.982485916464474e-05
sg19
F0.04508804821356402
sg20
F0.9548736863718105
ss(g210
g118
tp481
(dp482
g16
F2.644997305896366e-07
sg17
F5.748841307833219e-07
sg18
F0.003178654788696138
sg19
F0.9148030255425738
sg20
F0.08201748028486869
ss(g145
g123
tp483
(dp484
g16
F3.1242772478923137e-06
sg17
F5.856401082726585e-06
sg18
F0.004411595998968565
sg19
F0.08196380468221715
sg20
F0.9136156186404836
ss(g101
g26
tp485
(dp486
g16
F1.7775815490318533e-06
sg17
F6.2326521792733866e-06
sg18
F8.405046156208706e-06
sg19
F0.047543548843509045
sg20
F0.9524400358766065
ss(g55
g215
tp487
(dp488
g16
F1.0977264731498555e-06
sg17
F2.025610615672621e-06
sg18
F0.5968561259580514
sg19
F0.10130128998483327
sg20
F0.3018394607200265
ss(g31
g150
tp489
(dp490
g16
F2.9995973659570436e-06
sg17
F6.132675703415958e-06
sg18
F0.009988579460528765
sg19
F0.051851208684145424
sg20
F0.9381510795822565
ss(g23
g123
tp491
(dp492
g16
F2.8817946812280337e-06
sg17
F6.250392377084865e-06
sg18
F0.002030049370195331
sg19
F0.04788317752710463
sg20
F0.9500776409156417
ss(g210
g34
tp493
(dp494
g16
F2.3564527157980874e-07
sg17
F4.883519122292895e-07
sg18
F0.13472966990814533
sg19
F0.7920289304852077
sg20
F0.07324067560946304
ss(g55
g50
tp495
(dp496
g16
F2.6016832290933326e-07
sg17
F4.80701869383354e-07
sg18
F0.9033095831939365
sg19
F0.023646504986648855
sg20
F0.07304317094922223
ss(g93
g50
tp497
(dp498
g16
F2.707997801475891e-06
sg17
F6.111477860853807e-06
sg18
F0.0011783659067771362
sg19
F0.04513325769379223
sg20
F0.9536795569237683
ss(g63
g76
tp499
(dp500
g16
F6.534339524156558e-07
sg17
F1.552002214015577e-06
sg18
F0.0019036735800880664
sg19
F0.7729514693496369
sg20
F0.22514265163410863
ss(g133
g66
tp501
(dp502
g16
F5.946470904833501e-07
sg17
F1.1682720520123537e-06
sg18
F0.14332674920330654
sg19
F0.6851773251558612
sg20
F0.17149416272168977
ss(g170
g58
tp503
(dp504
g16
F2.5925908621689853e-06
sg17
F6.278927914702745e-06
sg18
F0.00013583944837386078
sg19
F0.045017477469066314
sg20
F0.954837811563783
ss(g145
g13
tp505
(dp506
g16
F2.769668833326149e-06
sg17
F5.2545766922476405e-06
sg18
F0.12107353331981821
sg19
F0.073917143082272
sg20
F0.8050012993523843
ss(g177
g66
tp507
(dp508
g16
F1.6209235777650883e-06
sg17
F6.474474597910831e-06
sg18
F3.4052010787269335e-09
sg19
F0.05054565299476447
sg20
F0.9494462482018587
ss(g47
g34
tp509
(dp510
g16
F2.202818944167289e-06
sg17
F6.224710365794869e-06
sg18
F7.994450309145182e-06
sg19
F0.045105994380050335
sg20
F0.9548775836403305
ss(g63
g58
tp511
(dp512
g16
F7.446925443172533e-08
sg17
F1.6936844812239512e-07
sg18
F0.8937149696608084
sg19
F0.08258830514268996
sg20
F0.023696481358799086
ss(g177
g123
tp513
(dp514
g16
F1.615077340902212e-06
sg17
F6.393665097047796e-06
sg18
F4.823792896174928e-05
sg19
F0.05049986146197767
sg20
F0.9494438918666226
ss(g133
g58
tp515
(dp516
g16
F8.360718697936154e-08
sg17
F1.6400206075836453e-07
sg18
F0.8795074989302651
sg19
F0.0964325039959264
sg20
F0.02405974946456073
ss(g81
g13
tp517
(dp518
g16
F2.398637951629379e-06
sg17
F6.271925294028176e-06
sg18
F4.326459300251753e-05
sg19
F0.044932087244511
sg20
F0.9550159775992408
ss(g140
g66
tp519
(dp520
g16
F1.395383247398247e-06
sg17
F2.6003497721823247e-06
sg18
F0.21155487064085765
sg19
F0.39444572596673105
sg20
F0.39399540765939184
ss(g63
g215
tp521
(dp522
g16
F2.587124392280657e-07
sg17
F5.791619132527007e-07
sg18
F0.6365257361973569
sg19
F0.28281231332492374
sg20
F0.08066111260336681
ss(g81
g123
tp523
(dp524
g16
F2.36362609719197e-06
sg17
F6.2119275384479774e-06
sg18
F0.000667626045686311
sg19
F0.044418058996652215
sg20
F0.9549057394040259
ss(g133
g123
tp525
(dp526
g16
F7.041732164072208e-07
sg17
F1.4135869146940616e-06
sg18
F0.0022395807939924123
sg19
F0.7925961208113277
sg20
F0.2051621806345488
ss(g10
g96
tp527
(dp528
g16
F1.339328442440153e-06
sg17
F6.603059116801705e-06
sg18
F4.3571306616513686e-18
sg19
F0.06794072498115215
sg20
F0.9320513326312886
ss(g63
g159
tp529
(dp530
g16
F6.715059963751566e-07
sg17
F1.5683457485005472e-06
sg18
F0.025576728485407096
sg19
F0.7575605221058701
sg20
F0.21686050955697792
ss(g210
g123
tp531
(dp532
g16
F2.6484321620298965e-07
sg17
F5.606752109820291e-07
sg18
F0.0010560482928824587
sg19
F0.9167794871141371
sg20
F0.08216363907455322
ss(g170
g108
tp533
(dp534
g16
F2.550507835857756e-06
sg17
F6.19096116978796e-06
sg18
F0.00015380474992031463
sg19
F0.04453360849607704
sg20
F0.955303845284997
ss(g81
g66
tp535
(dp536
g16
F2.4062904329794638e-06
sg17
F6.297262785327701e-06
sg18
F7.528689777883639e-05
sg19
F0.0451466169466053
sg20
F0.9547693926023975
ss(g71
g58
tp537
(dp538
g16
F8.965209033512922e-07
sg17
F1.6719733876394154e-06
sg18
F0.7081046704219889
sg19
F0.037007119764624306
sg20
F0.2548856413190958
ss(g222
g159
tp539
(dp540
g16
F3.085656059447541e-06
sg17
F6.112137870127426e-06
sg18
F0.010338765641357555
sg19
F0.06365606833938728
sg20
F0.9259959682253257
ss(g55
g108
tp541
(dp542
g16
F5.678614220271089e-07
sg17
F1.07216793495648e-06
sg18
F0.7860745369759111
sg19
F0.05405162883209565
sg20
F0.15987219416263626
ss(g39
g197
tp543
(dp544
g16
F1.986299160169217e-06
sg17
F6.3299795924226746e-06
sg18
F0.0001247064072301553
sg19
F0.046041554047963826
sg20
F0.9538254232660535
ss(g140
g215
tp545
(dp546
g16
F5.924659689936066e-07
sg17
F1.1098489516284148e-06
sg18
F0.6763926496137186
sg19
F0.15917554789558774
sg20
F0.16443010017577311
ss(g93
g84
tp547
(dp548
g16
F2.7915802897418184e-06
sg17
F6.242177484433697e-06
sg18
F0.0015129614469798895
sg19
F0.04585215925854178
sg20
F0.952625845536704
ss(g140
g128
tp549
(dp550
g16
F4.052565927277046e-07
sg17
F7.694161477540445e-07
sg18
F0.7765807056286553
sg19
F0.1085912828728018
sg20
F0.11482683682580241
ss(g31
g66
tp551
(dp552
g16
F2.9625311631294627e-06
sg17
F6.116542154439724e-06
sg18
F0.012126348509865234
sg19
F0.0524837960911481
sg20
F0.9353807763256692
ss(g71
g108
tp553
(dp554
g16
F1.1768023699609698e-06
sg17
F2.1721739658017485e-06
sg18
F0.6140960319665009
sg19
F0.04987531790548841
sg20
F0.33602530115167495
ss(g113
g188
tp555
(dp556
g16
F1.4289167698505108e-06
sg17
F6.372043081520772e-06
sg18
F3.6176379307446495e-09
sg19
F0.05439386388237581
sg20
F0.9455983315401351
ss(g63
g188
tp557
(dp558
g16
F6.520996024717937e-07
sg17
F1.5402247333920004e-06
sg18
F0.0426826862683362
sg19
F0.7315078081392066
sg20
F0.22580731326812148
ss(g55
g159
tp559
(dp560
g16
F2.5711064417771e-06
sg17
F4.865782391365891e-06
sg18
F0.0345607788657729
sg19
F0.2409814293616545
sg20
F0.7244503548837395
ss(g23
g108
tp561
(dp562
g16
F2.9089268432846567e-06
sg17
F6.193124314405752e-06
sg18
F0.007501647781270808
sg19
F0.047650767412101586
sg20
F0.9448384827554699
ss(g101
g42
tp563
(dp564
g16
F1.7118323259882286e-06
sg17
F6.102946094744557e-06
sg18
F5.86637032923271e-07
sg19
F0.04630615173056062
sg20
F0.9536854468539856
ss(g55
g13
tp565
(dp566
g16
F1.6924766138857935e-06
sg17
F3.1685226070450526e-06
sg18
F0.3666933929416511
sg19
F0.15687226264111728
sg20
F0.47642948341801067
ss(g81
g128
tp567
(dp568
g16
F2.394652313224601e-06
sg17
F6.307471386869064e-06
sg18
F1.8981453250160115e-05
sg19
F0.04496062395056309
sg20
F0.9550116924724869
ss(g23
g42
tp569
(dp570
g16
F2.8989616720715696e-06
sg17
F6.179714766329735e-06
sg18
F0.0035420586413793045
sg19
F0.048141198369359095
sg20
F0.9483076643128232
ss(g47
g84
tp571
(dp572
g16
F2.21297559466941e-06
sg17
F6.284816144686867e-06
sg18
F0.0010017016771862858
sg19
F0.045193511152718815
sg20
F0.9537962893783556
ss(g81
g34
tp573
(dp574
g16
F2.3778156049253867e-06
sg17
F6.125735230517053e-06
sg18
F5.6366206634866975e-05
sg19
F0.04447317249807814
sg20
F0.9554619577444516
ss(g47
g128
tp575
(dp576
g16
F2.167137384983282e-06
sg17
F6.203371873818617e-06
sg18
F1.3646123960612279e-06
sg19
F0.04456391961315684
sg20
F0.9554263452651884
ss(g81
g108
tp577
(dp578
g16
F2.3599308022687333e-06
sg17
F6.1191976878151485e-06
sg18
F1.4224932865732195e-05
sg19
F0.044379014171244006
sg20
F0.9555982817674001
ss(g113
g26
tp579
(dp580
g16
F1.421931826976925e-06
sg17
F6.553020297964649e-06
sg18
F9.88231538607942e-08
sg19
F0.055394775794650956
sg20
F0.9445971504300701
ss(g222
g84
tp581
(dp582
g16
F3.1677631106028844e-06
sg17
F6.092772326964306e-06
sg18
F0.0020579174467472176
sg19
F0.06290076696228783
sg20
F0.9350320550555272
ss(g222
g66
tp583
(dp584
g16
F3.0742430773483165e-06
sg17
F5.959377126927993e-06
sg18
F0.030063784466823312
sg19
F0.06174186070480895
sg20
F0.9081853212081636
ss(g222
g123
tp585
(dp586
g16
F3.1287715858404584e-06
sg17
F6.1965487410876615e-06
sg18
F0.0035244002301254946
sg19
F0.0632200033031349
sg20
F0.9332462711464127
ss(g23
g66
tp587
(dp588
g16
F2.8753246954860797e-06
sg17
F6.196531821026604e-06
sg18
F0.004310119371672101
sg19
F0.04859831295112726
sg20
F0.9470824958206843
ss(g101
g58
tp589
(dp590
g16
F1.8219731690380685e-06
sg17
F6.254690836633951e-06
sg18
F2.1982456322200458e-10
sg19
F0.047158494539456974
sg20
F0.952833428576713
ss(g10
g150
tp591
(dp592
g16
F1.3091448475580533e-06
sg17
F6.382497756979415e-06
sg18
F6.838216908533116e-14
sg19
F0.06616856903647741
sg20
F0.9338237393208496
ss(g140
g188
tp593
(dp594
g16
F1.6491681676366082e-06
sg17
F3.1905410168727556e-06
sg18
F0.05531023393328758
sg19
F0.4616547932558797
sg20
F0.4830301331016482
ss(g39
g159
tp595
(dp596
g16
F2.0315747852427783e-06
sg17
F6.268457869342285e-06
sg18
F1.8756161584025096e-05
sg19
F0.04660476123138569
sg20
F0.9533681825743757
ss(g133
g50
tp597
(dp598
g16
F5.045028412711192e-08
sg17
F1.0260337240483575e-07
sg18
F0.924535899537872
sg19
F0.060610105053919915
sg20
F0.01485384235455173
ss(g170
g150
tp599
(dp600
g16
F2.569426991457634e-06
sg17
F6.173417273705955e-06
sg18
F0.0003948544490019036
sg19
F0.04470262729679026
sg20
F0.9548937754099425
ss(g145
g42
tp601
(dp602
g16
F3.0487767838175377e-06
sg17
F5.811729769960766e-06
sg18
F0.033753721537381105
sg19
F0.08539736785218453
sg20
F0.8808400501038808
ss(g81
g76
tp603
(dp604
g16
F2.425203557741109e-06
sg17
F6.290556093935563e-06
sg18
F0.0008820290526098675
sg19
F0.04459112421412327
sg20
F0.954518130973615
ss(g47
g150
tp605
(dp606
g16
F2.1671014056907536e-06
sg17
F6.1919923338395395e-06
sg18
F1.917994766065747e-05
sg19
F0.04497613146981937
sg20
F0.9549963294887804
ss(g93
g108
tp607
(dp608
g16
F2.7450938972530617e-06
sg17
F6.142451629774648e-06
sg18
F0.0012234078313113534
sg19
F0.04571812952641793
sg20
F0.9530495750967436
ss(g81
g96
tp609
(dp610
g16
F2.3531033263134195e-06
sg17
F6.344938332641974e-06
sg18
F3.310803647329763e-05
sg19
F0.04524247643124247
sg20
F0.9547157174906256
ss(g81
g215
tp611
(dp612
g16
F2.394534830251312e-06
sg17
F6.285488301420997e-06
sg18
F2.463642492862751e-05
sg19
F0.04436635885966246
sg20
F0.9556003246922773
ss(g10
g58
tp613
(dp614
g16
F1.2991894437496467e-06
sg17
F6.519557733868083e-06
sg18
F2.645039278040059e-22
sg19
F0.06646020417513851
sg20
F0.933531977077684
ss(g47
g108
tp615
(dp616
g16
F2.1429601990538804e-06
sg17
F6.248811047789597e-06
sg18
F8.852504259059024e-07
sg19
F0.0448408952550663
sg20
F0.9551498277232611
ss(g81
g188
tp617
(dp618
g16
F2.347051937475131e-06
sg17
F6.267771911218577e-06
sg18
F0.0001691824350373868
sg19
F0.04446042224981392
sg20
F0.9553617804912999
ss(g140
g96
tp619
(dp620
g16
F8.046272561920616e-07
sg17
F1.5321989723607657e-06
sg18
F0.5560795726889055
sg19
F0.22088663030422176
sg20
F0.22303146018064424
ss(g140
g197
tp621
(dp622
g16
F1.7686970642336492e-06
sg17
F3.3757750978324315e-06
sg18
F0.007691995285600673
sg19
F0.5012636421736051
sg20
F0.49103921806863227
ss(g10
g108
tp623
(dp624
g16
F1.2918436020918328e-06
sg17
F6.607499170506535e-06
sg18
F2.9606686908131634e-21
sg19
F0.0660291770023023
sg20
F0.933962923654925
ss(g145
g66
tp625
(dp626
g16
F2.9619876743955705e-06
sg17
F5.604893081425095e-06
sg18
F0.06519083197561752
sg19
F0.08023745430619442
sg20
F0.8545631468374323
ss(g71
g188
tp627
(dp628
g16
F2.9149144405454144e-06
sg17
F5.404788699799029e-06
sg18
F0.03912207566512615
sg19
F0.1288130232518549
sg20
F0.8320565813798787
ss(g81
g197
tp629
(dp630
g16
F2.401674677213322e-06
sg17
F6.3017338004716906e-06
sg18
F0.0005126344923192959
sg19
F0.044894327823078735
sg20
F0.9545843342761243
ss(g145
g58
tp631
(dp632
g16
F1.8139149419472793e-06
sg17
F3.3889027422705307e-06
sg18
F0.4378503615918451
sg19
F0.046638158216680464
sg20
F0.5155062773737902
ss(g222
g118
tp633
(dp634
g16
F3.088137078198154e-06
sg17
F6.093520916666239e-06
sg18
F0.006022030774680366
sg19
F0.06251657148485727
sg20
F0.9314522160824676
ss(g222
g58
tp635
(dp636
g16
F2.588524460393036e-06
sg17
F5.0913973153954345e-06
sg18
F0.17122272596584778
sg19
F0.053301107753304953
sg20
F0.7754684863590714
ss(g101
g108
tp637
(dp638
g16
F1.7996595015335345e-06
sg17
F6.2735099694396594e-06
sg18
F5.293786898270397e-10
sg19
F0.04717328413837949
sg20
F0.9528186421627709
ss(g113
g76
tp639
(dp640
g16
F1.3780442405070485e-06
sg17
F6.345547520969263e-06
sg18
F6.995127474647608e-05
sg19
F0.05449513280386449
sg20
F0.9454271923296276
ss(g101
g118
tp641
(dp642
g16
F1.8364022359384433e-06
sg17
F6.399827638282767e-06
sg18
F2.0546413466225538e-05
sg19
F0.048273884132757246
sg20
F0.9516973332239023
ss(g133
g84
tp643
(dp644
g16
F6.901404612586094e-07
sg17
F1.3414033814312125e-06
sg18
F0.0007449316700284532
sg19
F0.7969177733628242
sg20
F0.20233526342330468
ss(g101
g159
tp645
(dp646
g16
F1.760488189651895e-06
sg17
F6.245562763363367e-06
sg18
F3.499485272590413e-06
sg19
F0.04765609755273799
sg20
F0.9523323969110363
ss(g170
g215
tp647
(dp648
g16
F2.5678457533722283e-06
sg17
F6.190860203726694e-06
sg18
F0.00020196352815552338
sg19
F0.04464097063091729
sg20
F0.9551483071349699
ss(g93
g118
tp649
(dp650
g16
F2.747534610304826e-06
sg17
F6.14671990515889e-06
sg18
F0.0014320579285416108
sg19
F0.045886229372765555
sg20
F0.9526728184441774
ss(g140
g76
tp651
(dp652
g16
F1.7964840031457964e-06
sg17
F3.3285040468833156e-06
sg18
F0.0028037307142144002
sg19
F0.491324107917135
sg20
F0.5058670363806007
ss(g55
g118
tp653
(dp654
g16
F2.6405731595512257e-06
sg17
F4.8829760764558e-06
sg18
F0.014176454337084834
sg19
F0.2377123458417758
sg20
F0.7481036762719034
ss(g177
g96
tp655
(dp656
g16
F1.6347822963395134e-06
sg17
F6.366683697112282e-06
sg18
F9.436777568549595e-11
sg19
F0.050491396262381194
sg20
F0.9495006021772576
ss(g71
g50
tp657
(dp658
g16
F6.638559712437998e-07
sg17
F1.222623202986516e-06
sg18
F0.7852345153472495
sg19
F0.02738172210866664
sg20
F0.18738187606490966
ss(g210
g188
tp659
(dp660
g16
F2.6577570883412473e-07
sg17
F5.409438745070402e-07
sg18
F0.01647536066809195
sg19
F0.904120020770082
sg20
F0.07940381184224284
ss(g222
g42
tp661
(dp662
g16
F3.0712812955680717e-06
sg17
F6.069338356422811e-06
sg18
F0.017719125879255834
sg19
F0.061908878888456545
sg20
F0.9203628546126358
ss(g133
g118
tp663
(dp664
g16
F6.808107655597728e-07
sg17
F1.3393723525673803e-06
sg18
F0.006403496216433635
sg19
F0.7995760509079587
sg20
F0.1940184326924894
ss(g170
g42
tp665
(dp666
g16
F2.5567945278582366e-06
sg17
F6.173024010494145e-06
sg18
F0.00045037023216617817
sg19
F0.044436733149201324
sg20
F0.955104166800094
ss(g113
g42
tp667
(dp668
g16
F1.4104384740720758e-06
sg17
F6.3797826913232145e-06
sg18
F6.964347605491527e-10
sg19
F0.05423699265358639
sg20
F0.9457552164288134
ss(g39
g34
tp669
(dp670
g16
F1.9968817567855326e-06
sg17
F6.306035347636181e-06
sg18
F7.727180687285515e-07
sg19
F0.046058378881610164
sg20
F0.9539325454832166
ss(g210
g13
tp671
(dp672
g16
F2.255170925807457e-07
sg17
F4.671161329428404e-07
sg18
F0.22049918049897133
sg19
F0.7116567664464013
sg20
F0.06784336042140193
ss(g23
g13
tp673
(dp674
g16
F2.871271646052326e-06
sg17
F6.257899993518016e-06
sg18
F0.005151566901402652
sg19
F0.0477888890293249
sg20
F0.9470504148976329
ss(g47
g118
tp675
(dp676
g16
F2.194431628442384e-06
sg17
F6.297445617817177e-06
sg18
F0.0001723766810130585
sg19
F0.04501300474612411
sg20
F0.9548061266956166
ss(g145
g84
tp677
(dp678
g16
F3.154796788360721e-06
sg17
F6.0096505941983094e-06
sg18
F0.002215908925383978
sg19
F0.08571429368463426
sg20
F0.9120606329425991
ss(g145
g50
tp679
(dp680
g16
F1.5150426082848852e-06
sg17
F2.9018652090339283e-06
sg18
F0.5231780037251317
sg19
F0.04113007807353904
sg20
F0.435687501293512
ss(g101
g13
tp681
(dp682
g16
F1.7875415792569466e-06
sg17
F6.359053798643282e-06
sg18
F1.779629531348061e-08
sg19
F0.047201559286408436
sg20
F0.9527902763219185
ss(g101
g215
tp683
(dp684
g16
F1.7903624139719434e-06
sg17
F6.385334353783868e-06
sg18
F3.1084246754851267e-09
sg19
F0.04778581681806336
sg20
F0.9522060043767443
ss(g47
g13
tp685
(dp686
g16
F2.203563471490708e-06
sg17
F6.3182681493959715e-06
sg18
F5.188211953015472e-06
sg19
F0.045405580262331525
sg20
F0.9545807096940946
ss(g145
g188
tp687
(dp688
g16
F3.0768021734130066e-06
sg17
F5.881954465674277e-06
sg18
F0.024092184654664183
sg19
F0.08265186665972707
sg20
F0.8932469899289698
ss(g81
g150
tp689
(dp690
g16
F2.3729026500212964e-06
sg17
F6.223190144520197e-06
sg18
F9.820458019849322e-05
sg19
F0.04472123995053453
sg20
F0.9551719593764725
ss(g210
g66
tp691
(dp692
g16
F2.526050567460391e-07
sg17
F5.149561970693627e-07
sg18
F0.08204404764677596
sg19
F0.843395624749693
sg20
F0.07455956004227737
ss(g210
g197
tp693
(dp694
g16
F2.6702269324234157e-07
sg17
F5.543348474346973e-07
sg18
F0.0018248360174508854
sg19
F0.9176973901095608
sg20
F0.08047695251544773
ss(g47
g66
tp695
(dp696
g16
F2.2149908266799243e-06
sg17
F6.276669843565569e-06
sg18
F1.240827284865734e-05
sg19
F0.04512749181955879
sg20
F0.9548516082469222
ss(g101
g150
tp697
(dp698
g16
F1.810117422855273e-06
sg17
F6.3081715781414545e-06
sg18
F2.526238492124147e-07
sg19
F0.048014033018717706
sg20
F0.951977596068432
ss(g23
g50
tp699
(dp700
g16
F2.8897175796979174e-06
sg17
F6.144390950318016e-06
sg18
F0.009012353352373454
sg19
F0.047390528185846714
sg20
F0.9435880843532498
ss(g170
g96
tp701
(dp702
g16
F2.5296553758253596e-06
sg17
F6.198794421312255e-06
sg18
F0.00023001816811449682
sg19
F0.04449758423090097
sg20
F0.9552636691511875
ss(g170
g26
tp703
(dp704
g16
F2.5571246614920648e-06
sg17
F6.1435826743101915e-06
sg18
F0.0006736180019270264
sg19
F0.044509849570049075
sg20
F0.9548078317206882
ss(g81
g159
tp705
(dp706
g16
F2.391515911782828e-06
sg17
F6.219214859075532e-06
sg18
F0.000222076799370196
sg19
F0.0443572707171727
sg20
F0.9554120417526863
ss(g145
g150
tp707
(dp708
g16
F3.000588669802916e-06
sg17
F5.7448820954850236e-06
sg18
F0.047194652076448025
sg19
F0.08070040436644374
sg20
F0.872096198086343
ss(g145
g96
tp709
(dp710
g16
F2.669069574344798e-06
sg17
F5.0887298496642545e-06
sg18
F0.1652244345890056
sg19
F0.07166661080162377
sg20
F0.7631011968099466
ss(g55
g76
tp711
(dp712
g16
F2.6723457153193583e-06
sg17
F4.990300113985783e-06
sg18
F0.003554405261711105
sg19
F0.24378244404045768
sg20
F0.7526554880520017
ss(g101
g128
tp713
(dp714
g16
F1.7435442778792932e-06
sg17
F6.2467446808409234e-06
sg18
F1.276159576409011e-09
sg19
F0.0472345059427658
sg20
F0.9527575024921159
ss(g63
g34
tp715
(dp716
g16
F5.135821712908045e-07
sg17
F1.163532853506756e-06
sg18
F0.26502374937671946
sg19
F0.5670797315321814
sg20
F0.1678948419760743
ss(g170
g66
tp717
(dp718
g16
F2.5782285841167814e-06
sg17
F6.186118864124023e-06
sg18
F0.0003471842524086074
sg19
F0.04487588726557955
sg20
F0.9547681641345637
ss(g222
g96
tp719
(dp720
g16
F2.9513700859412383e-06
sg17
F5.726435415237564e-06
sg18
F0.06512548761351974
sg19
F0.059522660581589025
sg20
F0.87534317399939
ss(g222
g34
tp721
(dp722
g16
F2.9941802806055977e-06
sg17
F5.832832019568573e-06
sg18
F0.03849459848660661
sg19
F0.06033015271803995
sg20
F0.9011664217830534
ss(g63
g128
tp723
(dp724
g16
F1.7830298129361554e-07
sg17
F4.148738786880568e-07
sg18
F0.7524666237726438
sg19
F0.18968003554761864
sg20
F0.05785274750287754
ss(g31
g159
tp725
(dp726
g16
F3.010698390441374e-06
sg17
F6.207365513403272e-06
sg18
F0.005763805719945303
sg19
F0.05297538790405653
sg20
F0.9412515883120942
ss(g71
g42
tp727
(dp728
g16
F2.8541131240346543e-06
sg17
F5.3286761402222315e-06
sg18
F0.05743316185145053
sg19
F0.12391079472647852
sg20
F0.8186478606328069
ss(g47
g159
tp729
(dp730
g16
F2.1231343138900126e-06
sg17
F6.184095891225634e-06
sg18
F7.061854911979904e-05
sg19
F0.044359227162211294
sg20
F0.9555618470584639
ss(g210
g76
tp731
(dp732
g16
F2.8063836633449093e-07
sg17
F5.528086051867701e-07
sg18
F0.0006110096481665258
sg19
F0.9165861831094088
sg20
F0.08280197379545305
ss(g55
g26
tp733
(dp734
g16
F2.5685552262597522e-06
sg17
F4.8371641953351894e-06
sg18
F0.021994051528140428
sg19
F0.24375842751580062
sg20
F0.7342401152366373
ss(g23
g215
tp735
(dp736
g16
F2.889997282189309e-06
sg17
F6.097363365289609e-06
sg18
F0.0061654798567913035
sg19
F0.04754098456644139
sg20
F0.9462845482161197
ss(g31
g128
tp737
(dp738
g16
F2.909080139055832e-06
sg17
F5.981430151592582e-06
sg18
F0.03041252537290782
sg19
F0.05170217551557703
sg20
F0.9178764086012245
ss(g47
g26
tp739
(dp740
g16
F2.153850551333475e-06
sg17
F6.315719279141803e-06
sg18
F0.00011214164858282474
sg19
F0.04541980876938609
sg20
F0.9544595800122007
ss(g222
g76
tp741
(dp742
g16
F3.115718134870423e-06
sg17
F6.171080358134203e-06
sg18
F0.0026914937122647234
sg19
F0.06244797174283655
sg20
F0.9348512477464057
ss(g31
g197
tp743
(dp744
g16
F3.025539972058352e-06
sg17
F6.150005064334179e-06
sg18
F0.0032701984355856
sg19
F0.05305717777005616
sg20
F0.9436634482493218
ss(g55
g42
tp745
(dp746
g16
F2.4554485173029917e-06
sg17
F4.636781603637372e-06
sg18
F0.08425743085161816
sg19
F0.22820083335527075
sg20
F0.6875346435629902
ss(g71
g26
tp747
(dp748
g16
F3.027038779086141e-06
sg17
F5.604657774118252e-06
sg18
F0.017762004295464647
sg19
F0.12791304537367792
sg20
F0.854316318634304
ss(g71
g96
tp749
(dp750
g16
F2.0518610746980697e-06
sg17
F3.849493844710847e-06
sg18
F0.31971535784195226
sg19
F0.09317621697937609
sg20
F0.5871025238237523
ss(g133
g13
tp751
(dp752
g16
F4.674300946811677e-07
sg17
F9.169414346919116e-07
sg18
F0.3275011229975465
sg19
F0.5363591145874842
sg20
F0.13613837804343995
ss(g113
g13
tp753
(dp754
g16
F1.473349106505397e-06
sg17
F6.49986760235061e-06
sg18
F9.805956665760827e-13
sg19
F0.054943428635070346
sg20
F0.9450485981472403
ss(g170
g76
tp755
(dp756
g16
F2.528566262737802e-06
sg17
F6.19544050108266e-06
sg18
F0.0011592692796482146
sg19
F0.04464747799293875
sg20
F0.9541845287206493
ss(g222
g215
tp757
(dp758
g16
F2.882466507717909e-06
sg17
F5.647209100509092e-06
sg18
F0.0833665336268342
sg19
F0.059494679421123145
sg20
F0.8571302572764342
ss(g210
g96
tp759
(dp760
g16
F1.8876113123152778e-07
sg17
F3.939747991659143e-07
sg18
F0.3198032479422346
sg19
F0.6234446977545874
sg20
F0.056751471567247636
ss(g210
g108
tp761
(dp762
g16
F7.832986304690577e-08
sg17
F1.6157186681619632e-07
sg18
F0.7069590980903231
sg19
F0.2687121032707238
sg20
F0.02432855873722319
ss(g145
g76
tp763
(dp764
g16
F3.128836982754802e-06
sg17
F5.925951858193503e-06
sg18
F0.003140026282196977
sg19
F0.08469643046441633
sg20
F0.9121544884645457
ss(g63
g96
tp765
(dp766
g16
F3.274126588329674e-07
sg17
F7.590318902222602e-07
sg18
F0.49421440621621404
sg19
F0.397982729169801
sg20
F0.10780177816943592
ss(g10
g66
tp767
(dp768
g16
F1.3141823574008017e-06
sg17
F6.463659452929928e-06
sg18
F6.050959416639084e-15
sg19
F0.06596818633801917
sg20
F0.9340240358201645
ss(g177
g150
tp769
(dp770
g16
F1.6025247041565443e-06
sg17
F6.284853061190036e-06
sg18
F1.114895832977247e-08
sg19
F0.0500970016308773
sg20
F0.9498950998423987
ss(g10
g215
tp771
(dp772
g16
F1.3691977744884364e-06
sg17
F6.3602217297582224e-06
sg18
F3.851090154259785e-19
sg19
F0.06765502300234699
sg20
F0.9323372475781488
ss(g71
g215
tp773
(dp774
g16
F1.794317757455555e-06
sg17
F3.3907808767197526e-06
sg18
F0.4161822970965151
sg19
F0.07614738292874332
sg20
F0.5076651348761073
ss(g23
g150
tp775
(dp776
g16
F2.8905599755775753e-06
sg17
F6.186316069853471e-06
sg18
F0.003920470162258495
sg19
F0.04820455556597074
sg20
F0.9478658973957252
ss(g140
g84
tp777
(dp778
g16
F1.7677556880123735e-06
sg17
F3.3768378244484446e-06
sg18
F0.0016791473631415296
sg19
F0.5077801580288035
sg20
F0.4905355500145426
ss(g71
g118
tp779
(dp780
g16
F3.0056442648258988e-06
sg17
F5.639061541950489e-06
sg18
F0.011766188404363824
sg19
F0.12960256416776056
sg20
F0.8586226027220688
ss(g177
g26
tp781
(dp782
g16
F1.5806683085361547e-06
sg17
F6.30872696514207e-06
sg18
F1.3301521381830229e-06
sg19
F0.05019500282336076
sg20
F0.9497957776292273
ss(g170
g197
tp783
(dp784
g16
F2.592556143373577e-06
sg17
F6.298400555654712e-06
sg18
F0.0008914527005458651
sg19
F0.04484056400764254
sg20
F0.9542590923351126
ss(g31
g58
tp785
(dp786
g16
F2.863716900111626e-06
sg17
F5.950481805810039e-06
sg18
F0.04318790509675394
sg19
F0.050657786058558654
sg20
F0.9061454946459815
ss(g81
g42
tp787
(dp788
g16
F2.3863009119324778e-06
sg17
F6.2431021831443865e-06
sg18
F0.00012796334715734826
sg19
F0.0442582820536149
sg20
F0.9556051251961326
ss(g39
g66
tp789
(dp790
g16
F1.9675639424820595e-06
sg17
F6.255312453788444e-06
sg18
F1.4617827123168688e-06
sg19
F0.046153527794007124
sg20
F0.9538367875468843
ss(g47
g96
tp791
(dp792
g16
F2.1663222462319087e-06
sg17
F6.290348804472222e-06
sg18
F3.337532687708473e-06
sg19
F0.045305558533077356
sg20
F0.9546826472631842
ss(g113
g150
tp793
(dp794
g16
F1.4423505453145815e-06
sg17
F6.287906686568105e-06
sg18
F1.3534749720235978e-10
sg19
F0.05459006049956844
sg20
F0.9454022091078521
ss(g39
g123
tp795
(dp796
g16
F1.968221354154161e-06
sg17
F6.3369737324301255e-06
sg18
F0.00023595217195056242
sg19
F0.046140396911372894
sg20
F0.9536153457215901
ss(g63
g50
tp797
(dp798
g16
F4.577227671642327e-08
sg17
F1.0292230458911782e-07
sg18
F0.93066241087194
sg19
F0.054496673065718294
sg20
F0.014840767367760441
ss(g55
g197
tp799
(dp800
g16
F2.6328483214365462e-06
sg17
F4.9418173790046725e-06
sg18
F0.008961002117492515
sg19
F0.24570803289526824
sg20
F0.7453233903215388
ss(g133
g108
tp801
(dp802
g16
F1.335961651057193e-07
sg17
F2.627857323774157e-07
sg18
F0.8131535510190515
sg19
F0.1478226043730457
sg20
F0.03902344822600541
ss(g10
g188
tp803
(dp804
g16
F1.3104837357286668e-06
sg17
F6.566385828253964e-06
sg18
F8.71684718859267e-12
sg19
F0.06644258003028886
sg20
F0.9335495430914303
ss(g93
g58
tp805
(dp806
g16
F2.709648074048054e-06
sg17
F6.177259518496132e-06
sg18
F0.00120076341424818
sg19
F0.045770241166930944
sg20
F0.9530201085112283
ss(g47
g123
tp807
(dp808
g16
F2.1982802395970915e-06
sg17
F6.214970081847681e-06
sg18
F0.00041208698253279285
sg19
F0.044739724209795384
sg20
F0.9548397755573502
ss(g210
g84
tp809
(dp810
g16
F2.738007232317869e-07
sg17
F5.538524607348249e-07
sg18
F0.0003439008436070997
sg19
F0.921669461085721
sg20
F0.07798581041748791
ss(g101
g197
tp811
(dp812
g16
F1.7375976938728284e-06
sg17
F6.3186991421469e-06
sg18
F4.8408773636279735e-05
sg19
F0.04724378519168919
sg20
F0.9526997497378386
ss(g93
g128
tp813
(dp814
g16
F2.697886409834171e-06
sg17
F6.2141077507416e-06
sg18
F0.0012376214548867382
sg19
F0.045666712068428435
sg20
F0.9530867544825241
ss(g177
g215
tp815
(dp816
g16
F1.631505504511432e-06
sg17
F6.249520331102145e-06
sg18
F2.8064803670187262e-11
sg19
F0.04961004019319345
sg20
F0.950382078752906
ss(g39
g188
tp817
(dp818
g16
F2.054485769663154e-06
sg17
F6.230348003813732e-06
sg18
F9.795664721521269e-06
sg19
F0.04594855380835507
sg20
F0.9540333656931501
ss(g170
g188
tp819
(dp820
g16
F2.551613405437369e-06
sg17
F6.246464191585315e-06
sg18
F0.0005199529085369717
sg19
F0.04490067862944894
sg20
F0.9545705703844171
ss(g93
g150
tp821
(dp822
g16
F2.693322166034301e-06
sg17
F6.176981833239269e-06
sg18
F0.001330459969145237
sg19
F0.045241878849183674
sg20
F0.9534187908776719
ss(g113
g50
tp823
(dp824
g16
F1.4166417446375366e-06
sg17
F6.621705443928715e-06
sg18
F5.052325879675779e-17
sg19
F0.05463497797811785
sg20
F0.9453569836746935
ss(g145
g118
tp825
(dp826
g16
F3.11113476623784e-06
sg17
F5.83934278339391e-06
sg18
F0.008622136775397641
sg19
F0.08164507860572703
sg20
F0.9097238341413257
ss(g93
g26
tp827
(dp828
g16
F2.7258481174314593e-06
sg17
F6.207114940989061e-06
sg18
F0.0014049486152469827
sg19
F0.045475315628723534
sg20
F0.9531108027929711
ss(g113
g84
tp829
(dp830
g16
F1.4670435410884486e-06
sg17
F6.456619595495279e-06
sg18
F0.00036904062091242434
sg19
F0.05551157296511641
sg20
F0.9441114627508348
ss(g71
g159
tp831
(dp832
g16
F3.006949379464969e-06
sg17
F5.557145502891074e-06
sg18
F0.026493372637140928
sg19
F0.1294414945966764
sg20
F0.8440565686713003
ss(g177
g58
tp833
(dp834
g16
F1.5797255315668822e-06
sg17
F6.409694794961603e-06
sg18
F7.841942404571315e-13
sg19
F0.04996264705376566
sg20
F0.9500293635251236
ss(g10
g128
tp835
(dp836
g16
F1.2691264889112755e-06
sg17
F6.30742485077638e-06
sg18
F3.240272836392798e-20
sg19
F0.0641358258580143
sg20
F0.935856597590646
ss(g210
g150
tp837
(dp838
g16
F2.627537243256775e-07
sg17
F5.288872376705833e-07
sg18
F0.04832421021306934
sg19
F0.8721494744276003
sg20
F0.07952552371836832
ss(g31
g13
tp839
(dp840
g16
F3.0272335203846678e-06
sg17
F6.104036853288667e-06
sg18
F0.017526706719876464
sg19
F0.052562157255012225
sg20
F0.9299020047547378
ss(g10
g197
tp841
(dp842
g16
F1.3025039322271445e-06
sg17
F6.399326726538554e-06
sg18
F1.3924155597114487e-07
sg19
F0.06586493361555965
sg20
F0.9341272253122257
ss(g113
g58
tp843
(dp844
g16
F1.382341194793336e-06
sg17
F6.30631503294214e-06
sg18
F2.527990957522865e-16
sg19
F0.05278328517497518
sg20
F0.9472090261687969
ss(g101
g76
tp845
(dp846
g16
F1.8041140623292686e-06
sg17
F6.373445534118888e-06
sg18
F0.0002851319829427985
sg19
F0.048003605689496166
sg20
F0.9517030847679644
ss(g170
g34
tp847
(dp848
g16
F2.5962332255418003e-06
sg17
F6.21718765132286e-06
sg18
F0.0003039917933380604
sg19
F0.04494382496661803
sg20
F0.9547433698191672
ss.